target datalayout = "e-m:e-p270:32:32-p271:32:32-p272:64:64-i64:64-i128:128-f80:128-n8:16:32:64-S128"
target triple = "x86_64-pc-linux-gnu"

%struct.cmsysProcess_s = type { ptr, i32, [3 x i32], [3 x i32], i32, [1024 x i8], ptr, i32, double, ptr, i32, i32, i32, i32, i32, %struct.kwsysProcessTime_s, %struct.kwsysProcessTime_s, i32, i32, %struct.fd_set, i32, i32, i32, [1025 x i8], ptr, ptr, ptr, ptr, ptr, i32, i32, i32, [2 x i32], [2 x i32], [2 x i32], i32, ptr }
%struct.kwsysProcessTime_s = type { i64, i64 }
%struct.fd_set = type { [16 x i64] }

; Function Attrs: nounwind uwtable
define dso_local i32 @cmsysProcess_AddCommand(ptr noundef %0, ptr noundef %1) #0 {
  %3 = alloca i32, align 4
  %4 = alloca ptr, align 8
  %5 = alloca ptr, align 8
  %6 = alloca i32, align 4
  %7 = alloca ptr, align 8
  %8 = alloca i32, align 4
  %9 = alloca i32, align 4
  %10 = alloca ptr, align 8
  %11 = alloca i64, align 8
  %12 = alloca i64, align 8
  store ptr %0, ptr %4, align 8, !tbaa !4
  store ptr %1, ptr %5, align 8, !tbaa !39
  call void @llvm.lifetime.start.p0(i64 4, ptr %6) #11
  call void @llvm.lifetime.start.p0(i64 8, ptr %7) #11
  %13 = load ptr, ptr %4, align 8, !tbaa !4
  %14 = icmp ne ptr %13, null
  br i1 %14, label %15, label %22

15:                                               ; preds = %2
  %16 = load ptr, ptr %5, align 8, !tbaa !39
  %17 = icmp ne ptr %16, null
  br i1 %17, label %18, label %22

18:                                               ; preds = %15
  %19 = load ptr, ptr %5, align 8, !tbaa !39
  %20 = load ptr, ptr %19, align 8, !tbaa !42
  %21 = icmp ne ptr %20, null
  br i1 %21, label %23, label %22

22:                                               ; preds = %18, %15, %2
  store i32 0, ptr %3, align 4
  store i32 1, ptr %8, align 4
  br label %213

23:                                               ; preds = %18
  %24 = load ptr, ptr %4, align 8, !tbaa !4
  %25 = getelementptr inbounds nuw %struct.cmsysProcess_s, ptr %24, i32 0, i32 1
  %26 = load volatile i32, ptr %25, align 8, !tbaa !32
  %27 = add nsw i32 %26, 1
  store i32 %27, ptr %6, align 4, !tbaa !20
  %28 = load i32, ptr %6, align 4, !tbaa !20
  %29 = sext i32 %28 to i64
  %30 = mul i64 8, %29
  %31 = call noalias ptr @malloc(i64 noundef %30) #12
  store ptr %31, ptr %7, align 8, !tbaa !46
  %32 = icmp ne ptr %31, null
  br i1 %32, label %34, label %33

33:                                               ; preds = %23
  store i32 0, ptr %3, align 4
  store i32 1, ptr %8, align 4
  br label %213

34:                                               ; preds = %23
  call void @llvm.lifetime.start.p0(i64 4, ptr %9) #11
  store i32 0, ptr %9, align 4, !tbaa !20
  br label %35

35:                                               ; preds = %53, %34
  %36 = load i32, ptr %9, align 4, !tbaa !20
  %37 = load ptr, ptr %4, align 8, !tbaa !4
  %38 = getelementptr inbounds nuw %struct.cmsysProcess_s, ptr %37, i32 0, i32 1
  %39 = load volatile i32, ptr %38, align 8, !tbaa !32
  %40 = icmp slt i32 %36, %39
  br i1 %40, label %41, label %56

41:                                               ; preds = %35
  %42 = load ptr, ptr %4, align 8, !tbaa !4
  %43 = getelementptr inbounds nuw %struct.cmsysProcess_s, ptr %42, i32 0, i32 0
  %44 = load ptr, ptr %43, align 8, !tbaa !41
  %45 = load i32, ptr %9, align 4, !tbaa !20
  %46 = sext i32 %45 to i64
  %47 = getelementptr inbounds ptr, ptr %44, i64 %46
  %48 = load ptr, ptr %47, align 8, !tbaa !39
  %49 = load ptr, ptr %7, align 8, !tbaa !46
  %50 = load i32, ptr %9, align 4, !tbaa !20
  %51 = sext i32 %50 to i64
  %52 = getelementptr inbounds ptr, ptr %49, i64 %51
  store ptr %48, ptr %52, align 8, !tbaa !39
  br label %53

53:                                               ; preds = %41
  %54 = load i32, ptr %9, align 4, !tbaa !20
  %55 = add nsw i32 %54, 1
  store i32 %55, ptr %9, align 4, !tbaa !20
  br label %35, !llvm.loop !47

56:                                               ; preds = %35
  call void @llvm.lifetime.end.p0(i64 4, ptr %9) #11
  %57 = load ptr, ptr %4, align 8, !tbaa !4
  %58 = getelementptr inbounds nuw %struct.cmsysProcess_s, ptr %57, i32 0, i32 12
  %59 = load i32, ptr %58, align 8, !tbaa !48
  %60 = icmp ne i32 %59, 0
  br i1 %60, label %61, label %93

61:                                               ; preds = %56
  %62 = load ptr, ptr %5, align 8, !tbaa !39
  %63 = load ptr, ptr %62, align 8, !tbaa !42
  %64 = call ptr @cmsysSystem_Parse_CommandForUnix(ptr noundef %63, i32 noundef 0)
  %65 = load ptr, ptr %7, align 8, !tbaa !46
  %66 = load ptr, ptr %4, align 8, !tbaa !4
  %67 = getelementptr inbounds nuw %struct.cmsysProcess_s, ptr %66, i32 0, i32 1
  %68 = load volatile i32, ptr %67, align 8, !tbaa !32
  %69 = sext i32 %68 to i64
  %70 = getelementptr inbounds ptr, ptr %65, i64 %69
  store ptr %64, ptr %70, align 8, !tbaa !39
  %71 = load ptr, ptr %7, align 8, !tbaa !46
  %72 = load ptr, ptr %4, align 8, !tbaa !4
  %73 = getelementptr inbounds nuw %struct.cmsysProcess_s, ptr %72, i32 0, i32 1
  %74 = load volatile i32, ptr %73, align 8, !tbaa !32
  %75 = sext i32 %74 to i64
  %76 = getelementptr inbounds ptr, ptr %71, i64 %75
  %77 = load ptr, ptr %76, align 8, !tbaa !39
  %78 = icmp ne ptr %77, null
  br i1 %78, label %79, label %90

79:                                               ; preds = %61
  %80 = load ptr, ptr %7, align 8, !tbaa !46
  %81 = load ptr, ptr %4, align 8, !tbaa !4
  %82 = getelementptr inbounds nuw %struct.cmsysProcess_s, ptr %81, i32 0, i32 1
  %83 = load volatile i32, ptr %82, align 8, !tbaa !32
  %84 = sext i32 %83 to i64
  %85 = getelementptr inbounds ptr, ptr %80, i64 %84
  %86 = load ptr, ptr %85, align 8, !tbaa !39
  %87 = getelementptr inbounds ptr, ptr %86, i64 0
  %88 = load ptr, ptr %87, align 8, !tbaa !42
  %89 = icmp ne ptr %88, null
  br i1 %89, label %92, label %90

90:                                               ; preds = %79, %61
  %91 = load ptr, ptr %7, align 8, !tbaa !46
  call void @free(ptr noundef %91) #11
  store i32 0, ptr %3, align 4
  store i32 1, ptr %8, align 4
  br label %213

92:                                               ; preds = %79
  br label %203

93:                                               ; preds = %56
  call void @llvm.lifetime.start.p0(i64 8, ptr %10) #11
  %94 = load ptr, ptr %5, align 8, !tbaa !39
  store ptr %94, ptr %10, align 8, !tbaa !39
  call void @llvm.lifetime.start.p0(i64 8, ptr %11) #11
  store i64 0, ptr %11, align 8, !tbaa !49
  call void @llvm.lifetime.start.p0(i64 8, ptr %12) #11
  store i64 0, ptr %12, align 8, !tbaa !49
  br label %95

95:                                               ; preds = %100, %93
  %96 = load ptr, ptr %10, align 8, !tbaa !39
  %97 = getelementptr inbounds nuw ptr, ptr %96, i32 1
  store ptr %97, ptr %10, align 8, !tbaa !39
  %98 = load ptr, ptr %96, align 8, !tbaa !42
  %99 = icmp ne ptr %98, null
  br i1 %99, label %100, label %101

100:                                              ; preds = %95
  br label %95, !llvm.loop !50

101:                                              ; preds = %95
  %102 = load ptr, ptr %10, align 8, !tbaa !39
  %103 = load ptr, ptr %5, align 8, !tbaa !39
  %104 = ptrtoint ptr %102 to i64
  %105 = ptrtoint ptr %103 to i64
  %106 = sub i64 %104, %105
  %107 = sdiv exact i64 %106, 8
  %108 = sub nsw i64 %107, 1
  store i64 %108, ptr %11, align 8, !tbaa !49
  %109 = load i64, ptr %11, align 8, !tbaa !49
  %110 = add nsw i64 %109, 1
  %111 = mul i64 %110, 8
  %112 = call noalias ptr @malloc(i64 noundef %111) #12
  %113 = load ptr, ptr %7, align 8, !tbaa !46
  %114 = load ptr, ptr %4, align 8, !tbaa !4
  %115 = getelementptr inbounds nuw %struct.cmsysProcess_s, ptr %114, i32 0, i32 1
  %116 = load volatile i32, ptr %115, align 8, !tbaa !32
  %117 = sext i32 %116 to i64
  %118 = getelementptr inbounds ptr, ptr %113, i64 %117
  store ptr %112, ptr %118, align 8, !tbaa !39
  %119 = load ptr, ptr %7, align 8, !tbaa !46
  %120 = load ptr, ptr %4, align 8, !tbaa !4
  %121 = getelementptr inbounds nuw %struct.cmsysProcess_s, ptr %120, i32 0, i32 1
  %122 = load volatile i32, ptr %121, align 8, !tbaa !32
  %123 = sext i32 %122 to i64
  %124 = getelementptr inbounds ptr, ptr %119, i64 %123
  %125 = load ptr, ptr %124, align 8, !tbaa !39
  %126 = icmp ne ptr %125, null
  br i1 %126, label %129, label %127

127:                                              ; preds = %101
  %128 = load ptr, ptr %7, align 8, !tbaa !46
  call void @free(ptr noundef %128) #11
  store i32 0, ptr %3, align 4
  store i32 1, ptr %8, align 4
  br label %200

129:                                              ; preds = %101
  store i64 0, ptr %12, align 8, !tbaa !49
  br label %130

130:                                              ; preds = %162, %129
  %131 = load i64, ptr %12, align 8, !tbaa !49
  %132 = load i64, ptr %11, align 8, !tbaa !49
  %133 = icmp slt i64 %131, %132
  br i1 %133, label %134, label %165

134:                                              ; preds = %130
  %135 = load ptr, ptr %5, align 8, !tbaa !39
  %136 = load i64, ptr %12, align 8, !tbaa !49
  %137 = getelementptr inbounds ptr, ptr %135, i64 %136
  %138 = load ptr, ptr %137, align 8, !tbaa !42
  %139 = call noalias ptr @strdup(ptr noundef %138) #11
  %140 = load ptr, ptr %7, align 8, !tbaa !46
  %141 = load ptr, ptr %4, align 8, !tbaa !4
  %142 = getelementptr inbounds nuw %struct.cmsysProcess_s, ptr %141, i32 0, i32 1
  %143 = load volatile i32, ptr %142, align 8, !tbaa !32
  %144 = sext i32 %143 to i64
  %145 = getelementptr inbounds ptr, ptr %140, i64 %144
  %146 = load ptr, ptr %145, align 8, !tbaa !39
  %147 = load i64, ptr %12, align 8, !tbaa !49
  %148 = getelementptr inbounds ptr, ptr %146, i64 %147
  store ptr %139, ptr %148, align 8, !tbaa !42
  %149 = load ptr, ptr %7, align 8, !tbaa !46
  %150 = load ptr, ptr %4, align 8, !tbaa !4
  %151 = getelementptr inbounds nuw %struct.cmsysProcess_s, ptr %150, i32 0, i32 1
  %152 = load volatile i32, ptr %151, align 8, !tbaa !32
  %153 = sext i32 %152 to i64
  %154 = getelementptr inbounds ptr, ptr %149, i64 %153
  %155 = load ptr, ptr %154, align 8, !tbaa !39
  %156 = load i64, ptr %12, align 8, !tbaa !49
  %157 = getelementptr inbounds ptr, ptr %155, i64 %156
  %158 = load ptr, ptr %157, align 8, !tbaa !42
  %159 = icmp ne ptr %158, null
  br i1 %159, label %161, label %160

160:                                              ; preds = %134
  br label %165

161:                                              ; preds = %134
  br label %162

162:                                              ; preds = %161
  %163 = load i64, ptr %12, align 8, !tbaa !49
  %164 = add nsw i64 %163, 1
  store i64 %164, ptr %12, align 8, !tbaa !49
  br label %130, !llvm.loop !51

165:                                              ; preds = %160, %130
  %166 = load i64, ptr %12, align 8, !tbaa !49
  %167 = load i64, ptr %11, align 8, !tbaa !49
  %168 = icmp slt i64 %166, %167
  br i1 %168, label %169, label %190

169:                                              ; preds = %165
  br label %170

170:                                              ; preds = %185, %169
  %171 = load i64, ptr %12, align 8, !tbaa !49
  %172 = icmp sgt i64 %171, 0
  br i1 %172, label %173, label %188

173:                                              ; preds = %170
  %174 = load ptr, ptr %7, align 8, !tbaa !46
  %175 = load ptr, ptr %4, align 8, !tbaa !4
  %176 = getelementptr inbounds nuw %struct.cmsysProcess_s, ptr %175, i32 0, i32 1
  %177 = load volatile i32, ptr %176, align 8, !tbaa !32
  %178 = sext i32 %177 to i64
  %179 = getelementptr inbounds ptr, ptr %174, i64 %178
  %180 = load ptr, ptr %179, align 8, !tbaa !39
  %181 = load i64, ptr %12, align 8, !tbaa !49
  %182 = sub nsw i64 %181, 1
  %183 = getelementptr inbounds ptr, ptr %180, i64 %182
  %184 = load ptr, ptr %183, align 8, !tbaa !42
  call void @free(ptr noundef %184) #11
  br label %185

185:                                              ; preds = %173
  %186 = load i64, ptr %12, align 8, !tbaa !49
  %187 = add nsw i64 %186, -1
  store i64 %187, ptr %12, align 8, !tbaa !49
  br label %170, !llvm.loop !52

188:                                              ; preds = %170
  %189 = load ptr, ptr %7, align 8, !tbaa !46
  call void @free(ptr noundef %189) #11
  store i32 0, ptr %3, align 4
  store i32 1, ptr %8, align 4
  br label %200

190:                                              ; preds = %165
  %191 = load ptr, ptr %7, align 8, !tbaa !46
  %192 = load ptr, ptr %4, align 8, !tbaa !4
  %193 = getelementptr inbounds nuw %struct.cmsysProcess_s, ptr %192, i32 0, i32 1
  %194 = load volatile i32, ptr %193, align 8, !tbaa !32
  %195 = sext i32 %194 to i64
  %196 = getelementptr inbounds ptr, ptr %191, i64 %195
  %197 = load ptr, ptr %196, align 8, !tbaa !39
  %198 = load i64, ptr %11, align 8, !tbaa !49
  %199 = getelementptr inbounds ptr, ptr %197, i64 %198
  store ptr null, ptr %199, align 8, !tbaa !42
  store i32 0, ptr %8, align 4
  br label %200

200:                                              ; preds = %190, %188, %127
  call void @llvm.lifetime.end.p0(i64 8, ptr %12) #11
  call void @llvm.lifetime.end.p0(i64 8, ptr %11) #11
  call void @llvm.lifetime.end.p0(i64 8, ptr %10) #11
  %201 = load i32, ptr %8, align 4
  switch i32 %201, label %213 [
    i32 0, label %202
  ]

202:                                              ; preds = %200
  br label %203

203:                                              ; preds = %202, %92
  %204 = load ptr, ptr %4, align 8, !tbaa !4
  %205 = getelementptr inbounds nuw %struct.cmsysProcess_s, ptr %204, i32 0, i32 0
  %206 = load ptr, ptr %205, align 8, !tbaa !41
  call void @free(ptr noundef %206) #11
  %207 = load ptr, ptr %7, align 8, !tbaa !46
  %208 = load ptr, ptr %4, align 8, !tbaa !4
  %209 = getelementptr inbounds nuw %struct.cmsysProcess_s, ptr %208, i32 0, i32 0
  store ptr %207, ptr %209, align 8, !tbaa !41
  %210 = load i32, ptr %6, align 4, !tbaa !20
  %211 = load ptr, ptr %4, align 8, !tbaa !4
  %212 = getelementptr inbounds nuw %struct.cmsysProcess_s, ptr %211, i32 0, i32 1
  store volatile i32 %210, ptr %212, align 8, !tbaa !32
  store i32 1, ptr %3, align 4
  store i32 1, ptr %8, align 4
  br label %213

213:                                              ; preds = %203, %200, %90, %33, %22
  call void @llvm.lifetime.end.p0(i64 8, ptr %7) #11
  call void @llvm.lifetime.end.p0(i64 4, ptr %6) #11
  %214 = load i32, ptr %3, align 4
  ret i32 %214
}