; Function Attrs: nounwind uwtable
define dso_local range(i32 0, 2) i32 @cmsysProcess_AddCommand(ptr noundef %0, ptr noundef %1) local_unnamed_addr #4 {
  %3 = icmp ne ptr %0, null
  %4 = icmp ne ptr %1, null
  %or.cond = and i1 %3, %4
  br i1 %or.cond, label %5, label %.critedge77

5:                                                ; preds = %2
  %6 = load ptr, ptr %1, align 8, !tbaa !26
  %.not = icmp eq ptr %6, null
  br i1 %.not, label %.critedge77, label %7

7:                                                ; preds = %5
  %8 = getelementptr inbounds nuw i8, ptr %0, i64 8
  %9 = load volatile i32, ptr %8, align 8, !tbaa !22
  %10 = add nsw i32 %9, 1
  %11 = sext i32 %10 to i64
  %12 = shl nsw i64 %11, 3
  %13 = tail call noalias ptr @malloc(i64 noundef %12) #27
  %.not69 = icmp eq ptr %13, null
  br i1 %.not69, label %.critedge77, label %.preheader80

.preheader80:                                     ; preds = %7
  %14 = load volatile i32, ptr %8, align 8, !tbaa !22
  %15 = icmp sgt i32 %14, 0
  br i1 %15, label %.lr.ph, label %._crit_edge

.lr.ph:                                           ; preds = %.preheader80
  %16 = load ptr, ptr %0, align 8, !tbaa !23
  br label %17

17:                                               ; preds = %.lr.ph, %17
  %indvars.iv = phi i64 [ 0, %.lr.ph ], [ %indvars.iv.next, %17 ]
  %18 = getelementptr inbounds nuw ptr, ptr %16, i64 %indvars.iv
  %19 = load ptr, ptr %18, align 8, !tbaa !24
  %20 = getelementptr inbounds nuw ptr, ptr %13, i64 %indvars.iv
  store ptr %19, ptr %20, align 8, !tbaa !24
  %indvars.iv.next = add nuw nsw i64 %indvars.iv, 1
  %21 = load volatile i32, ptr %8, align 8, !tbaa !22
  %22 = sext i32 %21 to i64
  %23 = icmp slt i64 %indvars.iv.next, %22
  br i1 %23, label %17, label %._crit_edge, !llvm.loop !44

._crit_edge:                                      ; preds = %17, %.preheader80
  %24 = getelementptr inbounds nuw i8, ptr %0, i64 1104
  %25 = load i32, ptr %24, align 8, !tbaa !45
  %.not70 = icmp eq i32 %25, 0
  br i1 %.not70, label %.preheader79, label %26

26:                                               ; preds = %._crit_edge
  %27 = tail call ptr @cmsysSystem_Parse_CommandForUnix(ptr noundef nonnull %6, i32 noundef 0) #25
  %28 = load volatile i32, ptr %8, align 8, !tbaa !22
  %29 = sext i32 %28 to i64
  %30 = getelementptr inbounds ptr, ptr %13, i64 %29
  store ptr %27, ptr %30, align 8, !tbaa !24
  %31 = load volatile i32, ptr %8, align 8, !tbaa !22
  %32 = sext i32 %31 to i64
  %33 = getelementptr inbounds ptr, ptr %13, i64 %32
  %34 = load ptr, ptr %33, align 8, !tbaa !24
  %.not74 = icmp eq ptr %34, null
  br i1 %.not74, label %41, label %35

35:                                               ; preds = %26
  %36 = load volatile i32, ptr %8, align 8, !tbaa !22
  %37 = sext i32 %36 to i64
  %38 = getelementptr inbounds ptr, ptr %13, i64 %37
  %39 = load ptr, ptr %38, align 8, !tbaa !24
  %40 = load ptr, ptr %39, align 8, !tbaa !26
  %.not75 = icmp eq ptr %40, null
  br i1 %.not75, label %41, label %90

41:                                               ; preds = %35, %26
  tail call void @free(ptr noundef nonnull %13) #25
  br label %.critedge77

.preheader79:                                     ; preds = %._crit_edge, %.preheader79
  %.060 = phi ptr [ %42, %.preheader79 ], [ %1, %._crit_edge ]
  %42 = getelementptr inbounds nuw i8, ptr %.060, i64 8
  %43 = load ptr, ptr %.060, align 8, !tbaa !26
  %.not71 = icmp eq ptr %43, null
  br i1 %.not71, label %44, label %.preheader79, !llvm.loop !46

44:                                               ; preds = %.preheader79
  %45 = ptrtoint ptr %42 to i64
  %46 = ptrtoint ptr %1 to i64
  %47 = sub i64 %45, %46
  %48 = ashr exact i64 %47, 3
  %49 = add nsw i64 %48, -1
  %50 = tail call noalias ptr @malloc(i64 noundef %47) #27
  %51 = load volatile i32, ptr %8, align 8, !tbaa !22
  %52 = sext i32 %51 to i64
  %53 = getelementptr inbounds ptr, ptr %13, i64 %52
  store ptr %50, ptr %53, align 8, !tbaa !24
  %54 = load volatile i32, ptr %8, align 8, !tbaa !22
  %55 = sext i32 %54 to i64
  %56 = getelementptr inbounds ptr, ptr %13, i64 %55
  %57 = load ptr, ptr %56, align 8, !tbaa !24
  %.not72 = icmp eq ptr %57, null
  br i1 %.not72, label %59, label %.preheader78

.preheader78:                                     ; preds = %44
  %58 = icmp sgt i64 %48, 1
  br i1 %58, label %.lr.ph84, label %.critedge

59:                                               ; preds = %44
  tail call void @free(ptr noundef nonnull %13) #25
  br label %.critedge77

.lr.ph84:                                         ; preds = %.preheader78, %74
  %.083 = phi i64 [ %75, %74 ], [ 0, %.preheader78 ]
  %60 = getelementptr inbounds nuw ptr, ptr %1, i64 %.083
  %61 = load ptr, ptr %60, align 8, !tbaa !26
  %62 = tail call noalias ptr @strdup(ptr noundef %61) #25
  %63 = load volatile i32, ptr %8, align 8, !tbaa !22
  %64 = sext i32 %63 to i64
  %65 = getelementptr inbounds ptr, ptr %13, i64 %64
  %66 = load ptr, ptr %65, align 8, !tbaa !24
  %67 = getelementptr inbounds nuw ptr, ptr %66, i64 %.083
  store ptr %62, ptr %67, align 8, !tbaa !26
  %68 = load volatile i32, ptr %8, align 8, !tbaa !22
  %69 = sext i32 %68 to i64
  %70 = getelementptr inbounds ptr, ptr %13, i64 %69
  %71 = load ptr, ptr %70, align 8, !tbaa !24
  %72 = getelementptr inbounds nuw ptr, ptr %71, i64 %.083
  %73 = load ptr, ptr %72, align 8, !tbaa !26
  %.not73 = icmp eq ptr %73, null
  br i1 %.not73, label %.preheader, label %74

.preheader:                                       ; preds = %.lr.ph84
  %.not88 = icmp eq i64 %.083, 0
  br i1 %.not88, label %._crit_edge87, label %.lr.ph86

74:                                               ; preds = %.lr.ph84
  %75 = add nuw nsw i64 %.083, 1
  %exitcond.not = icmp eq i64 %75, %49
  br i1 %exitcond.not, label %.critedge, label %.lr.ph84, !llvm.loop !47

.lr.ph86:                                         ; preds = %.preheader, %.lr.ph86
  %.185 = phi i64 [ %83, %.lr.ph86 ], [ %.083, %.preheader ]
  %76 = load volatile i32, ptr %8, align 8, !tbaa !22
  %77 = sext i32 %76 to i64
  %78 = getelementptr inbounds ptr, ptr %13, i64 %77
  %79 = load ptr, ptr %78, align 8, !tbaa !24
  %80 = getelementptr ptr, ptr %79, i64 %.185
  %81 = getelementptr i8, ptr %80, i64 -8
  %82 = load ptr, ptr %81, align 8, !tbaa !26
  tail call void @free(ptr noundef %82) #25
  %83 = add nsw i64 %.185, -1
  %84 = icmp sgt i64 %.185, 1
  br i1 %84, label %.lr.ph86, label %._crit_edge87, !llvm.loop !48

._crit_edge87:                                    ; preds = %.lr.ph86, %.preheader
  tail call void @free(ptr noundef nonnull %13) #25
  br label %.critedge77

.critedge:                                        ; preds = %74, %.preheader78
  %85 = load volatile i32, ptr %8, align 8, !tbaa !22
  %86 = sext i32 %85 to i64
  %87 = getelementptr inbounds ptr, ptr %13, i64 %86
  %88 = load ptr, ptr %87, align 8, !tbaa !24
  %89 = getelementptr inbounds ptr, ptr %88, i64 %49
  store ptr null, ptr %89, align 8, !tbaa !26
  br label %90

90:                                               ; preds = %.critedge, %35
  %91 = load ptr, ptr %0, align 8, !tbaa !23
  tail call void @free(ptr noundef %91) #25
  store ptr %13, ptr %0, align 8, !tbaa !23
  store volatile i32 %10, ptr %8, align 8, !tbaa !22
  br label %.critedge77

.critedge77:                                      ; preds = %._crit_edge87, %59, %7, %2, %5, %90, %41
  %.063 = phi i32 [ 1, %90 ], [ 0, %41 ], [ 0, %5 ], [ 0, %2 ], [ 0, %7 ], [ 0, %59 ], [ 0, %._crit_edge87 ]
  ret i32 %.063
}